target datalayout = "e-m:e-p270:32:32-p271:32:32-p272:64:64-i64:64-i128:128-f80:128-n8:16:32:64-S128"
target triple = "x86_64-unknown-linux-gnu"

%struct.Range = type { i64, i64 }

@.str = private unnamed_addr constant [41 x i8] c"!range_is_empty(a) && !range_is_empty(b)\00", align 1
@.str.1 = private unnamed_addr constant [21 x i8] c"../qemu/util/range.c\00", align 1
@__PRETTY_FUNCTION__.range_compare = private unnamed_addr constant [36 x i8] c"int range_compare(Range *, Range *)\00", align 1
@.str.4 = private unnamed_addr constant [57 x i8] c"range->lob <= range->upb || range->lob == range->upb + 1\00", align 1
@.str.5 = private unnamed_addr constant [99 x i8] c"/home/dtcxzyw/WorkSpace/Projects/compilers/llvm-opt-benchmark/bench/qemu/qemu/include/qemu/range.h\00", align 1
@__PRETTY_FUNCTION__.range_invariant = private unnamed_addr constant [36 x i8] c"void range_invariant(const Range *)\00", align 1

; Function Attrs: nounwind sspstrong uwtable
define internal void @range_invariant(ptr noundef %range) #0 {
entry:
  %range.addr = alloca ptr, align 8
  store ptr %range, ptr %range.addr, align 8
  %0 = load ptr, ptr %range.addr, align 8
  %lob = getelementptr inbounds %struct.Range, ptr %0, i32 0, i32 0
  %1 = load i64, ptr %lob, align 8
  %2 = load ptr, ptr %range.addr, align 8
  %upb = getelementptr inbounds %struct.Range, ptr %2, i32 0, i32 1
  %3 = load i64, ptr %upb, align 8
  %cmp = icmp ule i64 %1, %3
  br i1 %cmp, label %if.then, label %lor.lhs.false

lor.lhs.false:                                    ; preds = %entry
  %4 = load ptr, ptr %range.addr, align 8
  %lob1 = getelementptr inbounds %struct.Range, ptr %4, i32 0, i32 0
  %5 = load i64, ptr %lob1, align 8
  %6 = load ptr, ptr %range.addr, align 8
  %upb2 = getelementptr inbounds %struct.Range, ptr %6, i32 0, i32 1
  %7 = load i64, ptr %upb2, align 8
  %add = add i64 %7, 1
  %cmp3 = icmp eq i64 %5, %add
  br i1 %cmp3, label %if.then, label %if.else

if.then:                                          ; preds = %lor.lhs.false, %entry
  br label %if.end

if.else:                                          ; preds = %lor.lhs.false
  call void @__assert_fail(ptr noundef @.str.4, ptr noundef @.str.5, i32 noundef 41, ptr noundef @__PRETTY_FUNCTION__.range_invariant) #5
  unreachable

if.end:                                           ; preds = %if.then
  ret void
}

; Function Attrs: nounwind sspstrong uwtable
define internal zeroext i1 @range_is_empty(ptr noundef %range) #0 {
entry:
  %range.addr = alloca ptr, align 8
  store ptr %range, ptr %range.addr, align 8
  %0 = load ptr, ptr %range.addr, align 8
  call void @range_invariant(ptr noundef %0)
  %1 = load ptr, ptr %range.addr, align 8
  %lob = getelementptr inbounds %struct.Range, ptr %1, i32 0, i32 0
  %2 = load i64, ptr %lob, align 8
  %3 = load ptr, ptr %range.addr, align 8
  %upb = getelementptr inbounds %struct.Range, ptr %3, i32 0, i32 1
  %4 = load i64, ptr %upb, align 8
  %cmp = icmp ugt i64 %2, %4
  ret i1 %cmp
}

; Function Attrs: nounwind sspstrong uwtable
define dso_local i32 @range_compare(ptr noundef %a, ptr noundef %b) #0 {
entry:
  %retval = alloca i32, align 4
  %a.addr = alloca ptr, align 8
  %b.addr = alloca ptr, align 8
  store ptr %a, ptr %a.addr, align 8
  store ptr %b, ptr %b.addr, align 8
  %0 = load ptr, ptr %a.addr, align 8
  %call = call zeroext i1 @range_is_empty(ptr noundef %0)
  br i1 %call, label %if.else, label %land.lhs.true

land.lhs.true:                                    ; preds = %entry
  %1 = load ptr, ptr %b.addr, align 8
  %call1 = call zeroext i1 @range_is_empty(ptr noundef %1)
  br i1 %call1, label %if.else, label %if.then

if.then:                                          ; preds = %land.lhs.true
  br label %if.end

if.else:                                          ; preds = %land.lhs.true, %entry
  call void @__assert_fail(ptr noundef @.str, ptr noundef @.str.1, i32 noundef 25, ptr noundef @__PRETTY_FUNCTION__.range_compare) #5
  unreachable

if.end:                                           ; preds = %if.then
  %2 = load ptr, ptr %b.addr, align 8
  %lob = getelementptr inbounds %struct.Range, ptr %2, i32 0, i32 0
  %3 = load i64, ptr %lob, align 8
  %tobool = icmp ne i64 %3, 0
  br i1 %tobool, label %land.lhs.true2, label %if.end5

land.lhs.true2:                                   ; preds = %if.end
  %4 = load ptr, ptr %b.addr, align 8
  %lob3 = getelementptr inbounds %struct.Range, ptr %4, i32 0, i32 0
  %5 = load i64, ptr %lob3, align 8
  %sub = sub i64 %5, 1
  %6 = load ptr, ptr %a.addr, align 8
  %upb = getelementptr inbounds %struct.Range, ptr %6, i32 0, i32 1
  %7 = load i64, ptr %upb, align 8
  %cmp = icmp ugt i64 %sub, %7
  br i1 %cmp, label %if.then4, label %if.end5

if.then4:                                         ; preds = %land.lhs.true2
  store i32 -1, ptr %retval, align 4
  br label %return

if.end5:                                          ; preds = %land.lhs.true2, %if.end
  %8 = load ptr, ptr %a.addr, align 8
  %lob6 = getelementptr inbounds %struct.Range, ptr %8, i32 0, i32 0
  %9 = load i64, ptr %lob6, align 8
  %tobool7 = icmp ne i64 %9, 0
  br i1 %tobool7, label %land.lhs.true8, label %if.end14

land.lhs.true8:                                   ; preds = %if.end5
  %10 = load ptr, ptr %a.addr, align 8
  %lob9 = getelementptr inbounds %struct.Range, ptr %10, i32 0, i32 0
  %11 = load i64, ptr %lob9, align 8
  %sub10 = sub i64 %11, 1
  %12 = load ptr, ptr %b.addr, align 8
  %upb11 = getelementptr inbounds %struct.Range, ptr %12, i32 0, i32 1
  %13 = load i64, ptr %upb11, align 8
  %cmp12 = icmp ugt i64 %sub10, %13
  br i1 %cmp12, label %if.then13, label %if.end14

if.then13:                                        ; preds = %land.lhs.true8
  store i32 1, ptr %retval, align 4
  br label %return

if.end14:                                         ; preds = %land.lhs.true8, %if.end5
  store i32 0, ptr %retval, align 4
  br label %return

return:                                           ; preds = %if.end14, %if.then13, %if.then4
  %14 = load i32, ptr %retval, align 4
  ret i32 %14
}