; Function Attrs: nounwind sspstrong uwtable
define dso_local range(i32 -1, 2) i32 @range_compare(ptr noundef readonly captures(none) %a, ptr noundef readonly captures(none) %b) local_unnamed_addr #0 {
entry:
  %a.val = load i64, ptr %a, align 8
  %0 = getelementptr i8, ptr %a, i64 8
  %a.val8 = load i64, ptr %0, align 8
  %cmp.not.i.i = icmp ule i64 %a.val, %a.val8
  %add.i.i = add i64 %a.val8, 1
  %cmp3.i.i = icmp eq i64 %a.val, %add.i.i
  %or.cond.i.i = or i1 %cmp.not.i.i, %cmp3.i.i
  br i1 %or.cond.i.i, label %range_is_empty.exit, label %if.else.i.i

if.else.i.i:                                      ; preds = %entry
  tail call void @__assert_fail(ptr noundef nonnull @.str.4, ptr noundef nonnull @.str.5, i32 noundef 41, ptr noundef nonnull @__PRETTY_FUNCTION__.range_invariant) #6
  unreachable

range_is_empty.exit:                              ; preds = %entry
  %cmp.i = icmp ugt i64 %a.val, %a.val8
  br i1 %cmp.i, label %if.else, label %land.lhs.true

land.lhs.true:                                    ; preds = %range_is_empty.exit
  %b.val = load i64, ptr %b, align 8
  %1 = getelementptr i8, ptr %b, i64 8
  %b.val9 = load i64, ptr %1, align 8
  %cmp.not.i.i10 = icmp ule i64 %b.val, %b.val9
  %add.i.i11 = add i64 %b.val9, 1
  %cmp3.i.i12 = icmp eq i64 %b.val, %add.i.i11
  %or.cond.i.i13 = or i1 %cmp.not.i.i10, %cmp3.i.i12
  br i1 %or.cond.i.i13, label %range_is_empty.exit16, label %if.else.i.i14

if.else.i.i14:                                    ; preds = %land.lhs.true
  tail call void @__assert_fail(ptr noundef nonnull @.str.4, ptr noundef nonnull @.str.5, i32 noundef 41, ptr noundef nonnull @__PRETTY_FUNCTION__.range_invariant) #6
  unreachable

range_is_empty.exit16:                            ; preds = %land.lhs.true
  %cmp.i15 = icmp ugt i64 %b.val, %b.val9
  br i1 %cmp.i15, label %if.else, label %if.end

if.else:                                          ; preds = %range_is_empty.exit16, %range_is_empty.exit
  tail call void @__assert_fail(ptr noundef nonnull @.str, ptr noundef nonnull @.str.1, i32 noundef 25, ptr noundef nonnull @__PRETTY_FUNCTION__.range_compare) #6
  unreachable

if.end:                                           ; preds = %range_is_empty.exit16
  %tobool.not = icmp ne i64 %b.val, 0
  %sub = add i64 %b.val, -1
  %cmp = icmp ugt i64 %sub, %a.val8
  %or.cond = and i1 %tobool.not, %cmp
  br i1 %or.cond, label %return, label %if.end5

if.end5:                                          ; preds = %if.end
  %tobool7.not = icmp ne i64 %a.val, 0
  %sub10 = add i64 %a.val, -1
  %cmp12 = icmp ugt i64 %sub10, %b.val9
  %or.cond17 = and i1 %tobool7.not, %cmp12
  %spec.select = zext i1 %or.cond17 to i32
  br label %return

return:                                           ; preds = %if.end5, %if.end
  %retval.0 = phi i32 [ -1, %if.end ], [ %spec.select, %if.end5 ]
  ret i32 %retval.0
}